target datalayout = "e-m:e-p270:32:32-p271:32:32-p272:64:64-i64:64-i128:128-f80:128-n8:16:32:64-S128"
target triple = "x86_64-pc-linux-gnu"

%"class.ncnn::DeconvolutionDepthWise3D" = type { %"class.ncnn::Layer", i32, i32, i32, i32, i32, i32, i32, i32, i32, i32, i32, i32, i32, i32, i32, i32, i32, i32, i32, i32, i32, i32, i32, i32, i32, i32, %"class.ncnn::Mat", %"class.ncnn::Mat", %"class.ncnn::Mat" }
%"class.ncnn::Layer" = type { ptr, i8, i8, i8, i8, i8, i8, i8, i8, i8, i8, i8, i8, i8, i8, i8, i8, i8, i8, i8, i8, i32, ptr, i32, %"class.std::__cxx11::basic_string", %"class.std::__cxx11::basic_string", %"class.std::vector", %"class.std::vector", %"class.std::vector.3", %"class.std::vector.3" }
%"class.std::__cxx11::basic_string" = type { %"struct.std::__cxx11::basic_string<char>::_Alloc_hider", i64, %union.anon }
%"struct.std::__cxx11::basic_string<char>::_Alloc_hider" = type { ptr }
%union.anon = type { i64, [8 x i8] }
%"class.std::vector" = type { %"struct.std::_Vector_base" }
%"struct.std::_Vector_base" = type { %"struct.std::_Vector_base<int, std::allocator<int>>::_Vector_impl" }
%"struct.std::_Vector_base<int, std::allocator<int>>::_Vector_impl" = type { %"struct.std::_Vector_base<int, std::allocator<int>>::_Vector_impl_data" }
%"struct.std::_Vector_base<int, std::allocator<int>>::_Vector_impl_data" = type { ptr, ptr, ptr }
%"class.std::vector.3" = type { %"struct.std::_Vector_base.4" }
%"struct.std::_Vector_base.4" = type { %"struct.std::_Vector_base<ncnn::Mat, std::allocator<ncnn::Mat>>::_Vector_impl" }
%"struct.std::_Vector_base<ncnn::Mat, std::allocator<ncnn::Mat>>::_Vector_impl" = type { %"struct.std::_Vector_base<ncnn::Mat, std::allocator<ncnn::Mat>>::_Vector_impl_data" }
%"struct.std::_Vector_base<ncnn::Mat, std::allocator<ncnn::Mat>>::_Vector_impl_data" = type { ptr, ptr, ptr }
%"class.ncnn::Mat" = type { ptr, ptr, i64, i32, ptr, i32, i32, i32, i32, i32, i64 }

; Function Attrs: noreturn nounwind uwtable
define linkonce_odr hidden void @__clang_call_terminate(ptr noundef %0) #4 comdat {
  %2 = call ptr @__cxa_begin_catch(ptr %0) #10
  call void @_ZSt9terminatev() #11
  unreachable
}

; Function Attrs: mustprogress uwtable
define hidden void @_ZN4ncnn24DeconvolutionDepthWise3DC2Ev(ptr noundef nonnull align 8 dereferenceable(528) %0) unnamed_addr #0 align 2 personality ptr @__gxx_personality_v0 {
  %2 = alloca ptr, align 8
  %3 = alloca ptr, align 8
  %4 = alloca ptr, align 8
  %5 = alloca i32, align 4
  %6 = alloca i32, align 4
  %7 = alloca ptr, align 8
  %8 = alloca i32, align 4
  %9 = alloca i32, align 4
  %10 = alloca ptr, align 8
  %11 = alloca ptr, align 8
  %12 = alloca ptr, align 8
  %13 = alloca ptr, align 8
  %14 = alloca ptr, align 8
  %15 = alloca ptr, align 8
  %16 = alloca ptr, align 8
  %17 = alloca i32, align 4
  store ptr %0, ptr %15, align 8
  %18 = load ptr, ptr %15, align 8
  call void @_ZN4ncnn5LayerC2Ev(ptr noundef nonnull align 8 dereferenceable(208) %18)
  store ptr getelementptr inbounds inrange(-16, 80) ({ [12 x ptr] }, ptr @_ZTVN4ncnn24DeconvolutionDepthWise3DE, i32 0, i32 0, i32 2), ptr %18, align 8
  %19 = getelementptr inbounds nuw %"class.ncnn::DeconvolutionDepthWise3D", ptr %18, i32 0, i32 27
  store ptr %19, ptr %14, align 8
  %20 = load ptr, ptr %14, align 8
  store ptr null, ptr %20, align 8
  %21 = getelementptr inbounds nuw %"class.ncnn::Mat", ptr %20, i32 0, i32 1
  store ptr null, ptr %21, align 8
  %22 = getelementptr inbounds nuw %"class.ncnn::Mat", ptr %20, i32 0, i32 2
  store i64 0, ptr %22, align 8
  %23 = getelementptr inbounds nuw %"class.ncnn::Mat", ptr %20, i32 0, i32 3
  store i32 0, ptr %23, align 8
  %24 = getelementptr inbounds nuw %"class.ncnn::Mat", ptr %20, i32 0, i32 4
  store ptr null, ptr %24, align 8
  %25 = getelementptr inbounds nuw %"class.ncnn::Mat", ptr %20, i32 0, i32 5
  store i32 0, ptr %25, align 8
  %26 = getelementptr inbounds nuw %"class.ncnn::Mat", ptr %20, i32 0, i32 6
  store i32 0, ptr %26, align 4
  %27 = getelementptr inbounds nuw %"class.ncnn::Mat", ptr %20, i32 0, i32 7
  store i32 0, ptr %27, align 8
  %28 = getelementptr inbounds nuw %"class.ncnn::Mat", ptr %20, i32 0, i32 8
  store i32 0, ptr %28, align 4
  %29 = getelementptr inbounds nuw %"class.ncnn::Mat", ptr %20, i32 0, i32 9
  store i32 0, ptr %29, align 8
  %30 = getelementptr inbounds nuw %"class.ncnn::Mat", ptr %20, i32 0, i32 10
  store i64 0, ptr %30, align 8
  br label %31

31:                                               ; preds = %1
  %32 = getelementptr inbounds nuw %"class.ncnn::DeconvolutionDepthWise3D", ptr %18, i32 0, i32 28
  store ptr %32, ptr %13, align 8
  %33 = load ptr, ptr %13, align 8
  store ptr null, ptr %33, align 8
  %34 = getelementptr inbounds nuw %"class.ncnn::Mat", ptr %33, i32 0, i32 1
  store ptr null, ptr %34, align 8
  %35 = getelementptr inbounds nuw %"class.ncnn::Mat", ptr %33, i32 0, i32 2
  store i64 0, ptr %35, align 8
  %36 = getelementptr inbounds nuw %"class.ncnn::Mat", ptr %33, i32 0, i32 3
  store i32 0, ptr %36, align 8
  %37 = getelementptr inbounds nuw %"class.ncnn::Mat", ptr %33, i32 0, i32 4
  store ptr null, ptr %37, align 8
  %38 = getelementptr inbounds nuw %"class.ncnn::Mat", ptr %33, i32 0, i32 5
  store i32 0, ptr %38, align 8
  %39 = getelementptr inbounds nuw %"class.ncnn::Mat", ptr %33, i32 0, i32 6
  store i32 0, ptr %39, align 4
  %40 = getelementptr inbounds nuw %"class.ncnn::Mat", ptr %33, i32 0, i32 7
  store i32 0, ptr %40, align 8
  %41 = getelementptr inbounds nuw %"class.ncnn::Mat", ptr %33, i32 0, i32 8
  store i32 0, ptr %41, align 4
  %42 = getelementptr inbounds nuw %"class.ncnn::Mat", ptr %33, i32 0, i32 9
  store i32 0, ptr %42, align 8
  %43 = getelementptr inbounds nuw %"class.ncnn::Mat", ptr %33, i32 0, i32 10
  store i64 0, ptr %43, align 8
  br label %44

44:                                               ; preds = %31
  %45 = getelementptr inbounds nuw %"class.ncnn::DeconvolutionDepthWise3D", ptr %18, i32 0, i32 29
  store ptr %45, ptr %12, align 8
  %46 = load ptr, ptr %12, align 8
  store ptr null, ptr %46, align 8
  %47 = getelementptr inbounds nuw %"class.ncnn::Mat", ptr %46, i32 0, i32 1
  store ptr null, ptr %47, align 8
  %48 = getelementptr inbounds nuw %"class.ncnn::Mat", ptr %46, i32 0, i32 2
  store i64 0, ptr %48, align 8
  %49 = getelementptr inbounds nuw %"class.ncnn::Mat", ptr %46, i32 0, i32 3
  store i32 0, ptr %49, align 8
  %50 = getelementptr inbounds nuw %"class.ncnn::Mat", ptr %46, i32 0, i32 4
  store ptr null, ptr %50, align 8
  %51 = getelementptr inbounds nuw %"class.ncnn::Mat", ptr %46, i32 0, i32 5
  store i32 0, ptr %51, align 8
  %52 = getelementptr inbounds nuw %"class.ncnn::Mat", ptr %46, i32 0, i32 6
  store i32 0, ptr %52, align 4
  %53 = getelementptr inbounds nuw %"class.ncnn::Mat", ptr %46, i32 0, i32 7
  store i32 0, ptr %53, align 8
  %54 = getelementptr inbounds nuw %"class.ncnn::Mat", ptr %46, i32 0, i32 8
  store i32 0, ptr %54, align 4
  %55 = getelementptr inbounds nuw %"class.ncnn::Mat", ptr %46, i32 0, i32 9
  store i32 0, ptr %55, align 8
  %56 = getelementptr inbounds nuw %"class.ncnn::Mat", ptr %46, i32 0, i32 10
  store i64 0, ptr %56, align 8
  br label %57

57:                                               ; preds = %44
  %58 = getelementptr inbounds nuw %"class.ncnn::Layer", ptr %18, i32 0, i32 1
  store i8 1, ptr %58, align 8
  %59 = getelementptr inbounds nuw %"class.ncnn::Layer", ptr %18, i32 0, i32 2
  store i8 0, ptr %59, align 1
  ret void

60:                                               ; No predecessors!
  %61 = landingpad { ptr, i32 }
          cleanup
  %62 = extractvalue { ptr, i32 } %61, 0
  store ptr %62, ptr %16, align 8
  %63 = extractvalue { ptr, i32 } %61, 1
  store i32 %63, ptr %17, align 4
  br label %165

64:                                               ; No predecessors!
  %65 = landingpad { ptr, i32 }
          cleanup
  %66 = extractvalue { ptr, i32 } %65, 0
  store ptr %66, ptr %16, align 8
  %67 = extractvalue { ptr, i32 } %65, 1
  store i32 %67, ptr %17, align 4
  br label %118

68:                                               ; No predecessors!
  %69 = landingpad { ptr, i32 }
          cleanup
  %70 = extractvalue { ptr, i32 } %69, 0
  store ptr %70, ptr %16, align 8
  %71 = extractvalue { ptr, i32 } %69, 1
  store i32 %71, ptr %17, align 4
  store ptr %32, ptr %11, align 8
  %72 = load ptr, ptr %11, align 8
  store ptr %72, ptr %4, align 8
  %73 = load ptr, ptr %4, align 8
  %74 = getelementptr inbounds nuw %"class.ncnn::Mat", ptr %73, i32 0, i32 1
  %75 = load ptr, ptr %74, align 8
  %76 = icmp ne ptr %75, null
  br i1 %76, label %77, label %104

77:                                               ; preds = %68
  %78 = getelementptr inbounds nuw %"class.ncnn::Mat", ptr %73, i32 0, i32 1
  %79 = load ptr, ptr %78, align 8
  store i32 -1, ptr %5, align 4
  %80 = load i32, ptr %5, align 4
  %81 = atomicrmw add ptr %79, i32 %80 acq_rel, align 4
  store i32 %81, ptr %6, align 4
  %82 = load i32, ptr %6, align 4
  %83 = icmp eq i32 %82, 1
  br i1 %83, label %84, label %104

84:                                               ; preds = %77
  %85 = getelementptr inbounds nuw %"class.ncnn::Mat", ptr %73, i32 0, i32 4
  %86 = load ptr, ptr %85, align 8
  %87 = icmp ne ptr %86, null
  br i1 %87, label %88, label %96

88:                                               ; preds = %84
  %89 = getelementptr inbounds nuw %"class.ncnn::Mat", ptr %73, i32 0, i32 4
  %90 = load ptr, ptr %89, align 8
  %91 = load ptr, ptr %73, align 8
  %92 = load ptr, ptr %90, align 8
  %93 = getelementptr inbounds ptr, ptr %92, i64 3
  %94 = load ptr, ptr %93, align 8
  invoke void %94(ptr noundef nonnull align 8 dereferenceable(8) %90, ptr noundef %91)
          to label %95 unwind label %114

95:                                               ; preds = %88
  br label %103

96:                                               ; preds = %84
  %97 = load ptr, ptr %73, align 8
  store ptr %97, ptr %3, align 8
  %98 = load ptr, ptr %3, align 8
  %99 = icmp ne ptr %98, null
  br i1 %99, label %100, label %102

100:                                              ; preds = %96
  %101 = load ptr, ptr %3, align 8
  call void @free(ptr noundef %101) #10
  br label %102

102:                                              ; preds = %100, %96
  br label %103

103:                                              ; preds = %102, %95
  br label %104

104:                                              ; preds = %103, %77, %68
  store ptr null, ptr %73, align 8
  %105 = getelementptr inbounds nuw %"class.ncnn::Mat", ptr %73, i32 0, i32 2
  store i64 0, ptr %105, align 8
  %106 = getelementptr inbounds nuw %"class.ncnn::Mat", ptr %73, i32 0, i32 3
  store i32 0, ptr %106, align 8
  %107 = getelementptr inbounds nuw %"class.ncnn::Mat", ptr %73, i32 0, i32 5
  store i32 0, ptr %107, align 8
  %108 = getelementptr inbounds nuw %"class.ncnn::Mat", ptr %73, i32 0, i32 6
  store i32 0, ptr %108, align 4
  %109 = getelementptr inbounds nuw %"class.ncnn::Mat", ptr %73, i32 0, i32 7
  store i32 0, ptr %109, align 8
  %110 = getelementptr inbounds nuw %"class.ncnn::Mat", ptr %73, i32 0, i32 8
  store i32 0, ptr %110, align 4
  %111 = getelementptr inbounds nuw %"class.ncnn::Mat", ptr %73, i32 0, i32 9
  store i32 0, ptr %111, align 8
  %112 = getelementptr inbounds nuw %"class.ncnn::Mat", ptr %73, i32 0, i32 10
  store i64 0, ptr %112, align 8
  %113 = getelementptr inbounds nuw %"class.ncnn::Mat", ptr %73, i32 0, i32 1
  store ptr null, ptr %113, align 8
  br label %117

114:                                              ; preds = %88
  %115 = landingpad { ptr, i32 }
          catch ptr null
  %116 = extractvalue { ptr, i32 } %115, 0
  call void @__clang_call_terminate(ptr %116) #11
  unreachable

117:                                              ; preds = %104
  br label %118

118:                                              ; preds = %117, %64
  store ptr %19, ptr %10, align 8
  %119 = load ptr, ptr %10, align 8
  store ptr %119, ptr %7, align 8
  %120 = load ptr, ptr %7, align 8
  %121 = getelementptr inbounds nuw %"class.ncnn::Mat", ptr %120, i32 0, i32 1
  %122 = load ptr, ptr %121, align 8
  %123 = icmp ne ptr %122, null
  br i1 %123, label %124, label %151

124:                                              ; preds = %118
  %125 = getelementptr inbounds nuw %"class.ncnn::Mat", ptr %120, i32 0, i32 1
  %126 = load ptr, ptr %125, align 8
  store i32 -1, ptr %8, align 4
  %127 = load i32, ptr %8, align 4
  %128 = atomicrmw add ptr %126, i32 %127 acq_rel, align 4
  store i32 %128, ptr %9, align 4
  %129 = load i32, ptr %9, align 4
  %130 = icmp eq i32 %129, 1
  br i1 %130, label %131, label %151

131:                                              ; preds = %124
  %132 = getelementptr inbounds nuw %"class.ncnn::Mat", ptr %120, i32 0, i32 4
  %133 = load ptr, ptr %132, align 8
  %134 = icmp ne ptr %133, null
  br i1 %134, label %135, label %143

135:                                              ; preds = %131
  %136 = getelementptr inbounds nuw %"class.ncnn::Mat", ptr %120, i32 0, i32 4
  %137 = load ptr, ptr %136, align 8
  %138 = load ptr, ptr %120, align 8
  %139 = load ptr, ptr %137, align 8
  %140 = getelementptr inbounds ptr, ptr %139, i64 3
  %141 = load ptr, ptr %140, align 8
  invoke void %141(ptr noundef nonnull align 8 dereferenceable(8) %137, ptr noundef %138)
          to label %142 unwind label %161

142:                                              ; preds = %135
  br label %150

143:                                              ; preds = %131
  %144 = load ptr, ptr %120, align 8
  store ptr %144, ptr %2, align 8
  %145 = load ptr, ptr %2, align 8
  %146 = icmp ne ptr %145, null
  br i1 %146, label %147, label %149

147:                                              ; preds = %143
  %148 = load ptr, ptr %2, align 8
  call void @free(ptr noundef %148) #10
  br label %149

149:                                              ; preds = %147, %143
  br label %150

150:                                              ; preds = %149, %142
  br label %151

151:                                              ; preds = %150, %124, %118
  store ptr null, ptr %120, align 8
  %152 = getelementptr inbounds nuw %"class.ncnn::Mat", ptr %120, i32 0, i32 2
  store i64 0, ptr %152, align 8
  %153 = getelementptr inbounds nuw %"class.ncnn::Mat", ptr %120, i32 0, i32 3
  store i32 0, ptr %153, align 8
  %154 = getelementptr inbounds nuw %"class.ncnn::Mat", ptr %120, i32 0, i32 5
  store i32 0, ptr %154, align 8
  %155 = getelementptr inbounds nuw %"class.ncnn::Mat", ptr %120, i32 0, i32 6
  store i32 0, ptr %155, align 4
  %156 = getelementptr inbounds nuw %"class.ncnn::Mat", ptr %120, i32 0, i32 7
  store i32 0, ptr %156, align 8
  %157 = getelementptr inbounds nuw %"class.ncnn::Mat", ptr %120, i32 0, i32 8
  store i32 0, ptr %157, align 4
  %158 = getelementptr inbounds nuw %"class.ncnn::Mat", ptr %120, i32 0, i32 9
  store i32 0, ptr %158, align 8
  %159 = getelementptr inbounds nuw %"class.ncnn::Mat", ptr %120, i32 0, i32 10
  store i64 0, ptr %159, align 8
  %160 = getelementptr inbounds nuw %"class.ncnn::Mat", ptr %120, i32 0, i32 1
  store ptr null, ptr %160, align 8
  br label %164

161:                                              ; preds = %135
  %162 = landingpad { ptr, i32 }
          catch ptr null
  %163 = extractvalue { ptr, i32 } %162, 0
  call void @__clang_call_terminate(ptr %163) #11
  unreachable

164:                                              ; preds = %151
  br label %165

165:                                              ; preds = %164, %60
  call void @_ZN4ncnn5LayerD2Ev(ptr noundef nonnull align 8 dereferenceable(208) %18) #10
  br label %166

166:                                              ; preds = %165
  %167 = load ptr, ptr %16, align 8
  %168 = load i32, ptr %17, align 4
  %169 = insertvalue { ptr, i32 } poison, ptr %167, 0
  %170 = insertvalue { ptr, i32 } %169, i32 %168, 1
  resume { ptr, i32 } %170
}